; Function Attrs: mustprogress nounwind uwtable
define dso_local noundef zeroext i1 @_ZN4llvm21shouldPrintBeforePassENS_9StringRefE(ptr %0, i64 %1) local_unnamed_addr #0 {
  %3 = alloca %"class.llvm::StringRef", align 8
  %4 = load i8, ptr getelementptr inbounds nuw (i8, ptr @_ZL14PrintBeforeAll, i64 128), align 8
  %5 = trunc i8 %4 to i1
  br i1 %5, label %16, label %6

6:                                                ; preds = %2
  %7 = load ptr, ptr getelementptr inbounds nuw (i8, ptr @_ZL11PrintBeforeB5cxx11, i64 128), align 8
  %8 = load ptr, ptr getelementptr inbounds nuw (i8, ptr @_ZL11PrintBeforeB5cxx11, i64 136), align 8
  %9 = ptrtoint ptr %8 to i64
  %10 = ptrtoint ptr %7 to i64
  %11 = sub i64 %9, %10
  call void @llvm.lifetime.start.p0(i64 16, ptr nonnull %3)
  store ptr %0, ptr %3, align 8
  %12 = getelementptr inbounds nuw i8, ptr %3, i64 8
  store i64 %1, ptr %12, align 8
  %13 = getelementptr inbounds i8, ptr %7, i64 %11
  %14 = call noundef ptr @_ZSt9__find_ifIPKNSt7__cxx1112basic_stringIcSt11char_traitsIcESaIcEEEN9__gnu_cxx5__ops16_Iter_equals_valIKN4llvm9StringRefEEEET_SF_SF_T0_St26random_access_iterator_tag(ptr noundef %7, ptr noundef %13, ptr nonnull align 8 dereferenceable(16) %3)
  %15 = icmp ne ptr %14, %8
  call void @llvm.lifetime.end.p0(i64 16, ptr nonnull %3)
  br label %16

16:                                               ; preds = %6, %2
  %17 = phi i1 [ true, %2 ], [ %15, %6 ]
  ret i1 %17
}